; Function Attrs: nounwind uwtable
define hidden ptr @dom_read_property(ptr noundef %0, ptr noundef %1, i32 noundef %2, ptr noundef %3, ptr noundef %4) #1 {
  %6 = getelementptr inbounds i8, ptr %0, i64 -24
  %7 = getelementptr inbounds i8, ptr %0, i64 -8
  %8 = load ptr, ptr %7, align 8
  %.not = icmp eq ptr %8, null
  br i1 %.not, label %16, label %9

9:                                                ; preds = %5
  %10 = tail call ptr @zend_hash_find(ptr noundef nonnull %8, ptr noundef %1) #16
  %.not25 = icmp eq ptr %10, null
  br i1 %.not25, label %16, label %11

11:                                               ; preds = %9
  %12 = load ptr, ptr %10, align 8, !nonnull !4, !noundef !4
  %13 = load ptr, ptr %12, align 8
  %14 = tail call i32 %13(ptr noundef nonnull %6, ptr noundef %4) #16
  %15 = icmp eq i32 %14, 0
  %.executor_globals = select i1 %15, ptr %4, ptr @executor_globals
  br label %18

16:                                               ; preds = %5, %9
  %17 = tail call ptr @zend_std_read_property(ptr noundef nonnull %0, ptr noundef %1, i32 noundef %2, ptr noundef %3, ptr noundef %4) #16
  br label %18

18:                                               ; preds = %11, %16
  %.022 = phi ptr [ %17, %16 ], [ %.executor_globals, %11 ]
  ret ptr %.022
}